; ModuleID = '45/202.c'
source_filename = "45/202.c"
target datalayout = "e-m:e-p270:32:32-p271:32:32-p272:64:64-i64:64-f80:128-n8:16:32:64-S128"
target triple = "x86_64-pc-linux-gnu"

@.str = private unnamed_addr constant [4 x i8] c"%d\0A\00", align 1

; Function Attrs: noinline nounwind uwtable
define dso_local void @main() #0 {
  %1 = alloca i32, align 4
  %2 = alloca i32, align 4
  %3 = alloca i32, align 4
  %4 = alloca i32, align 4
  %5 = alloca [100 x i8], align 16
  %6 = alloca [100 x i8], align 16
  %7 = alloca [100 x i8], align 16
  store i32 0, i32* %4, align 4
  %8 = getelementptr inbounds [100 x i8], [100 x i8]* %5, i64 0, i64 0
  %9 = call i32 (i8*, ...) bitcast (i32 (...)* @gets to i32 (i8*, ...)*)(i8* %8)
  store i32 0, i32* %1, align 4
  br label %10

10:                                               ; preds = %27, %0
  %11 = load i32, i32* %1, align 4
  %12 = sext i32 %11 to i64
  %13 = getelementptr inbounds [100 x i8], [100 x i8]* %5, i64 0, i64 %12
  %14 = load i8, i8* %13, align 1
  %15 = sext i8 %14 to i32
  %16 = icmp ne i32 %15, 32
  br i1 %16, label %17, label %30

17:                                               ; preds = %10
  %18 = load i32, i32* %1, align 4
  %19 = sext i32 %18 to i64
  %20 = getelementptr inbounds [100 x i8], [100 x i8]* %5, i64 0, i64 %19
  %21 = load i8, i8* %20, align 1
  %22 = load i32, i32* %1, align 4
  %23 = sext i32 %22 to i64
  %24 = getelementptr inbounds [100 x i8], [100 x i8]* %6, i64 0, i64 %23
  store i8 %21, i8* %24, align 1
  %25 = load i32, i32* %4, align 4
  %26 = add nsw i32 %25, 1
  store i32 %26, i32* %4, align 4
  br label %27

27:                                               ; preds = %17
  %28 = load i32, i32* %1, align 4
  %29 = add nsw i32 %28, 1
  store i32 %29, i32* %1, align 4
  br label %10

30:                                               ; preds = %10
  %31 = load i32, i32* %1, align 4
  %32 = add nsw i32 %31, 1
  store i32 %32, i32* %1, align 4
  store i32 0, i32* %2, align 4
  br label %33

33:                                               ; preds = %48, %30
  %34 = load i32, i32* %1, align 4
  %35 = sext i32 %34 to i64
  %36 = getelementptr inbounds [100 x i8], [100 x i8]* %5, i64 0, i64 %35
  %37 = load i8, i8* %36, align 1
  %38 = sext i8 %37 to i32
  %39 = icmp ne i32 %38, 0
  br i1 %39, label %40, label %53

40:                                               ; preds = %33
  %41 = load i32, i32* %1, align 4
  %42 = sext i32 %41 to i64
  %43 = getelementptr inbounds [100 x i8], [100 x i8]* %5, i64 0, i64 %42
  %44 = load i8, i8* %43, align 1
  %45 = load i32, i32* %2, align 4
  %46 = sext i32 %45 to i64
  %47 = getelementptr inbounds [100 x i8], [100 x i8]* %7, i64 0, i64 %46
  store i8 %44, i8* %47, align 1
  br label %48

48:                                               ; preds = %40
  %49 = load i32, i32* %2, align 4
  %50 = add nsw i32 %49, 1
  store i32 %50, i32* %2, align 4
  %51 = load i32, i32* %1, align 4
  %52 = add nsw i32 %51, 1
  store i32 %52, i32* %1, align 4
  br label %33

53:                                               ; preds = %33
  store i32 0, i32* %1, align 4
  br label %54

54:                                               ; preds = %96, %53
  %55 = load i32, i32* %1, align 4
  %56 = sext i32 %55 to i64
  %57 = getelementptr inbounds [100 x i8], [100 x i8]* %7, i64 0, i64 %56
  %58 = load i8, i8* %57, align 1
  %59 = sext i8 %58 to i32
  %60 = getelementptr inbounds [100 x i8], [100 x i8]* %6, i64 0, i64 0
  %61 = load i8, i8* %60, align 16
  %62 = sext i8 %61 to i32
  %63 = icmp eq i32 %59, %62
  br i1 %63, label %64, label %95

64:                                               ; preds = %54
  store i32 1, i32* %3, align 4
  store i32 0, i32* %2, align 4
  br label %65

65:                                               ; preds = %85, %64
  %66 = load i32, i32* %2, align 4
  %67 = load i32, i32* %4, align 4
  %68 = icmp slt i32 %66, %67
  br i1 %68, label %69, label %88

69:                                               ; preds = %65
  %70 = load i32, i32* %1, align 4
  %71 = load i32, i32* %2, align 4
  %72 = add nsw i32 %70, %71
  %73 = sext i32 %72 to i64
  %74 = getelementptr inbounds [100 x i8], [100 x i8]* %7, i64 0, i64 %73
  %75 = load i8, i8* %74, align 1
  %76 = sext i8 %75 to i32
  %77 = load i32, i32* %2, align 4
  %78 = sext i32 %77 to i64
  %79 = getelementptr inbounds [100 x i8], [100 x i8]* %6, i64 0, i64 %78
  %80 = load i8, i8* %79, align 1
  %81 = sext i8 %80 to i32
  %82 = icmp ne i32 %76, %81
  br i1 %82, label %83, label %84

83:                                               ; preds = %69
  store i32 0, i32* %3, align 4
  br label %88

84:                                               ; preds = %69
  br label %85

85:                                               ; preds = %84
  %86 = load i32, i32* %2, align 4
  %87 = add nsw i32 %86, 1
  store i32 %87, i32* %2, align 4
  br label %65

88:                                               ; preds = %83, %65
  %89 = load i32, i32* %3, align 4
  %90 = icmp ne i32 %89, 0
  br i1 %90, label %91, label %94

91:                                               ; preds = %88
  %92 = load i32, i32* %1, align 4
  %93 = call i32 (i8*, ...) @printf(i8* getelementptr inbounds ([4 x i8], [4 x i8]* @.str, i64 0, i64 0), i32 %92)
  br label %99

94:                                               ; preds = %88
  br label %95

95:                                               ; preds = %94, %54
  br label %96

96:                                               ; preds = %95
  %97 = load i32, i32* %1, align 4
  %98 = add nsw i32 %97, 1
  store i32 %98, i32* %1, align 4
  br label %54

99:                                               ; preds = %91
  ret void
}

declare dso_local i32 @gets(...) #1

declare dso_local i32 @printf(i8*, ...) #1


!llvm.module.flags = !{!0}
!llvm.ident = !{!1}

!0 = !{i32 1, !"wchar_size", i32 4}
!1 = !{!"clang version 10.0.0-4ubuntu1 "}
